; Function Attrs: mustprogress uwtable
define void @_Z14init_ekinstateP11ekinstate_tPK10t_inputrec(ptr noundef %0, ptr nocapture noundef readonly %1) local_unnamed_addr #0 personality ptr @__gxx_personality_v0 {
  %3 = getelementptr inbounds i8, ptr %1, i64 720
  %4 = load i32, ptr %3, align 8
  %5 = getelementptr inbounds i8, ptr %0, i64 4
  store i32 %4, ptr %5, align 4
  %6 = getelementptr inbounds i8, ptr %0, i64 8
  %7 = sext i32 %4 to i64
  %8 = tail call noundef ptr @_Z11save_callocPKcS0_imm(ptr noundef nonnull @.str.4, ptr noundef nonnull @.str.5, i32 noundef 1404, i64 noundef %7, i64 noundef 36)
  store ptr %8, ptr %6, align 8
  %9 = getelementptr inbounds i8, ptr %0, i64 16
  %10 = load i32, ptr %5, align 4
  %11 = sext i32 %10 to i64
  %12 = tail call noundef ptr @_Z11save_callocPKcS0_imm(ptr noundef nonnull @.str.6, ptr noundef nonnull @.str.5, i32 noundef 1405, i64 noundef %11, i64 noundef 36)
  store ptr %12, ptr %9, align 8
  %13 = getelementptr inbounds i8, ptr %0, i64 24
  %14 = load i32, ptr %5, align 4
  %15 = sext i32 %14 to i64
  %16 = tail call noundef ptr @_Z11save_callocPKcS0_imm(ptr noundef nonnull @.str.7, ptr noundef nonnull @.str.5, i32 noundef 1406, i64 noundef %15, i64 noundef 36)
  store ptr %16, ptr %13, align 8
  %17 = getelementptr inbounds i8, ptr %0, i64 72
  %18 = load i32, ptr %5, align 4
  %19 = sext i32 %18 to i64
  %20 = getelementptr inbounds i8, ptr %0, i64 80
  %21 = load ptr, ptr %20, align 8
  %22 = load ptr, ptr %17, align 8
  %23 = ptrtoint ptr %21 to i64
  %24 = ptrtoint ptr %22 to i64
  %25 = sub i64 %23, %24
  %26 = ashr exact i64 %25, 3
  %27 = icmp ult i64 %26, %19
  br i1 %27, label %28, label %30

28:                                               ; preds = %2
  %29 = sub nsw i64 %19, %26
  tail call void @_ZNSt6vectorIdSaIdEE17_M_default_appendEm(ptr noundef nonnull align 8 dereferenceable(24) %17, i64 noundef %29)
  %.pre = load i32, ptr %5, align 4
  %.pre22 = sext i32 %.pre to i64
  br label %_ZNSt6vectorIdSaIdEE6resizeEm.exit

30:                                               ; preds = %2
  %31 = icmp ugt i64 %26, %19
  br i1 %31, label %32, label %_ZNSt6vectorIdSaIdEE6resizeEm.exit

32:                                               ; preds = %30
  %33 = getelementptr inbounds double, ptr %22, i64 %19
  %.not.i.i = icmp eq ptr %21, %33
  br i1 %.not.i.i, label %_ZNSt6vectorIdSaIdEE6resizeEm.exit, label %34

34:                                               ; preds = %32
  store ptr %33, ptr %20, align 8
  br label %_ZNSt6vectorIdSaIdEE6resizeEm.exit

_ZNSt6vectorIdSaIdEE6resizeEm.exit:               ; preds = %28, %30, %32, %34
  %.pre-phi = phi i64 [ %.pre22, %28 ], [ %19, %30 ], [ %19, %32 ], [ %19, %34 ]
  %35 = getelementptr inbounds i8, ptr %0, i64 96
  %36 = getelementptr inbounds i8, ptr %0, i64 104
  %37 = load ptr, ptr %36, align 8
  %38 = load ptr, ptr %35, align 8
  %39 = ptrtoint ptr %37 to i64
  %40 = ptrtoint ptr %38 to i64
  %41 = sub i64 %39, %40
  %42 = ashr exact i64 %41, 3
  %43 = icmp ult i64 %42, %.pre-phi
  br i1 %43, label %44, label %46

44:                                               ; preds = %_ZNSt6vectorIdSaIdEE6resizeEm.exit
  %45 = sub nsw i64 %.pre-phi, %42
  tail call void @_ZNSt6vectorIdSaIdEE17_M_default_appendEm(ptr noundef nonnull align 8 dereferenceable(24) %35, i64 noundef %45)
  %.pre21 = load i32, ptr %5, align 4
  %.pre23 = sext i32 %.pre21 to i64
  br label %_ZNSt6vectorIdSaIdEE6resizeEm.exit18

46:                                               ; preds = %_ZNSt6vectorIdSaIdEE6resizeEm.exit
  %47 = icmp ugt i64 %42, %.pre-phi
  br i1 %47, label %48, label %_ZNSt6vectorIdSaIdEE6resizeEm.exit18

48:                                               ; preds = %46
  %49 = getelementptr inbounds double, ptr %38, i64 %.pre-phi
  %.not.i.i17 = icmp eq ptr %37, %49
  br i1 %.not.i.i17, label %_ZNSt6vectorIdSaIdEE6resizeEm.exit18, label %50

50:                                               ; preds = %48
  store ptr %49, ptr %36, align 8
  br label %_ZNSt6vectorIdSaIdEE6resizeEm.exit18

_ZNSt6vectorIdSaIdEE6resizeEm.exit18:             ; preds = %44, %46, %48, %50
  %.pre-phi24 = phi i64 [ %.pre23, %44 ], [ %.pre-phi, %46 ], [ %.pre-phi, %48 ], [ %.pre-phi, %50 ]
  %51 = getelementptr inbounds i8, ptr %0, i64 120
  %52 = getelementptr inbounds i8, ptr %0, i64 128
  %53 = load ptr, ptr %52, align 8
  %54 = load ptr, ptr %51, align 8
  %55 = ptrtoint ptr %53 to i64
  %56 = ptrtoint ptr %54 to i64
  %57 = sub i64 %55, %56
  %58 = ashr exact i64 %57, 3
  %59 = icmp ult i64 %58, %.pre-phi24
  br i1 %59, label %60, label %62

60:                                               ; preds = %_ZNSt6vectorIdSaIdEE6resizeEm.exit18
  %61 = sub nsw i64 %.pre-phi24, %58
  tail call void @_ZNSt6vectorIdSaIdEE17_M_default_appendEm(ptr noundef nonnull align 8 dereferenceable(24) %51, i64 noundef %61)
  br label %_ZNSt6vectorIdSaIdEE6resizeEm.exit20

62:                                               ; preds = %_ZNSt6vectorIdSaIdEE6resizeEm.exit18
  %63 = icmp ugt i64 %58, %.pre-phi24
  br i1 %63, label %64, label %_ZNSt6vectorIdSaIdEE6resizeEm.exit20

64:                                               ; preds = %62
  %65 = getelementptr inbounds double, ptr %54, i64 %.pre-phi24
  %.not.i.i19 = icmp eq ptr %53, %65
  br i1 %.not.i.i19, label %_ZNSt6vectorIdSaIdEE6resizeEm.exit20, label %66

66:                                               ; preds = %64
  store ptr %65, ptr %52, align 8
  br label %_ZNSt6vectorIdSaIdEE6resizeEm.exit20

_ZNSt6vectorIdSaIdEE6resizeEm.exit20:             ; preds = %60, %62, %64, %66
  %67 = getelementptr inbounds i8, ptr %0, i64 144
  tail call void @llvm.memset.p0.i64(ptr noundef nonnull align 8 dereferenceable(9) %67, i8 0, i64 9, i1 false)
  ret void
}